target datalayout = "e-m:e-p270:32:32-p271:32:32-p272:64:64-i64:64-i128:128-f80:128-n8:16:32:64-S128"
target triple = "x86_64-pc-linux-gnu"

%"class.pxrInternal_v0_24__pxrReserved__::TfToken" = type { %"class.pxrInternal_v0_24__pxrReserved__::TfPointerAndBits" }
%"class.pxrInternal_v0_24__pxrReserved__::TfPointerAndBits" = type { ptr }
%"class.pxrInternal_v0_24__pxrReserved__::SdfPath" = type { %"struct.pxrInternal_v0_24__pxrReserved__::Sdf_PathNodeHandleImpl", %"struct.pxrInternal_v0_24__pxrReserved__::Sdf_PathNodeHandleImpl.3" }
%"struct.pxrInternal_v0_24__pxrReserved__::Sdf_PathNodeHandleImpl" = type { %"struct.pxrInternal_v0_24__pxrReserved__::Sdf_Pool<pxrInternal_v0_24__pxrReserved__::Sdf_PathPrimTag, 24, 8>::Handle" }
%"struct.pxrInternal_v0_24__pxrReserved__::Sdf_Pool<pxrInternal_v0_24__pxrReserved__::Sdf_PathPrimTag, 24, 8>::Handle" = type { i32 }
%"struct.pxrInternal_v0_24__pxrReserved__::Sdf_PathNodeHandleImpl.3" = type { %"struct.pxrInternal_v0_24__pxrReserved__::Sdf_Pool<pxrInternal_v0_24__pxrReserved__::Sdf_PathPropTag, 24, 8>::Handle" }
%"struct.pxrInternal_v0_24__pxrReserved__::Sdf_Pool<pxrInternal_v0_24__pxrReserved__::Sdf_PathPropTag, 24, 8>::Handle" = type { i32 }
%"class.pxrInternal_v0_24__pxrReserved__::Usd_PrimDataHandle" = type { %"class.pxrInternal_v0_24__pxrReserved__::TfDelegatedCountPtr" }
%"class.pxrInternal_v0_24__pxrReserved__::TfDelegatedCountPtr" = type { ptr }
%"class.pxrInternal_v0_24__pxrReserved__::UsdLuxLightAPI" = type { %"class.pxrInternal_v0_24__pxrReserved__::UsdAPISchemaBase" }
%"class.pxrInternal_v0_24__pxrReserved__::UsdAPISchemaBase" = type { %"class.pxrInternal_v0_24__pxrReserved__::UsdSchemaBase", %"class.pxrInternal_v0_24__pxrReserved__::TfToken" }
%"class.pxrInternal_v0_24__pxrReserved__::UsdSchemaBase" = type { ptr, %"class.pxrInternal_v0_24__pxrReserved__::Usd_PrimDataHandle", %"class.pxrInternal_v0_24__pxrReserved__::SdfPath" }
%"class.pxrInternal_v0_24__pxrReserved__::UsdCollectionAPI" = type { %"class.pxrInternal_v0_24__pxrReserved__::UsdAPISchemaBase" }

@_ZTVN32pxrInternal_v0_24__pxrReserved__14UsdLuxLightAPIE = external unnamed_addr constant { [8 x ptr] }, align 8
@_ZTVN32pxrInternal_v0_24__pxrReserved__16UsdAPISchemaBaseE = external unnamed_addr constant { [8 x ptr] }, align 8

; Function Attrs: mustprogress nounwind uwtable
define linkonce_odr void @_ZN32pxrInternal_v0_24__pxrReserved__16TfPointerAndBitsIKNS_7TfToken4_RepEEC2Ev(ptr noundef nonnull align 8 dereferenceable(8) %0) unnamed_addr #2 comdat align 2 {
  %2 = alloca ptr, align 8
  store ptr %0, ptr %2, align 8
  %3 = load ptr, ptr %2, align 8
  %4 = getelementptr inbounds nuw %"class.pxrInternal_v0_24__pxrReserved__::TfPointerAndBits", ptr %3, i32 0, i32 0
  store ptr null, ptr %4, align 8
  ret void
}

; Function Attrs: mustprogress nounwind uwtable
define linkonce_odr void @_ZN32pxrInternal_v0_24__pxrReserved__7TfTokenC2Ev(ptr noundef nonnull align 8 dereferenceable(8) %0) unnamed_addr #2 comdat align 2 {
  %2 = alloca ptr, align 8
  store ptr %0, ptr %2, align 8
  %3 = load ptr, ptr %2, align 8
  %4 = getelementptr inbounds nuw %"class.pxrInternal_v0_24__pxrReserved__::TfToken", ptr %3, i32 0, i32 0
  call void @_ZN32pxrInternal_v0_24__pxrReserved__16TfPointerAndBitsIKNS_7TfToken4_RepEEC2Ev(ptr noundef nonnull align 8 dereferenceable(8) %4) #3
  ret void
}

; Function Attrs: mustprogress uwtable
define linkonce_odr void @_ZN32pxrInternal_v0_24__pxrReserved__16UsdAPISchemaBaseC2ERKNS_7UsdPrimE(ptr noundef nonnull align 8 dereferenceable(32) %0, ptr noundef nonnull align 8 dereferenceable(32) %1) unnamed_addr #0 comdat align 2 {
  %3 = alloca ptr, align 8
  %4 = alloca ptr, align 8
  store ptr %0, ptr %3, align 8
  store ptr %1, ptr %4, align 8
  %5 = load ptr, ptr %3, align 8
  %6 = load ptr, ptr %4, align 8
  call void @_ZN32pxrInternal_v0_24__pxrReserved__13UsdSchemaBaseC2ERKNS_7UsdPrimE(ptr noundef nonnull align 8 dereferenceable(24) %5, ptr noundef nonnull align 8 dereferenceable(32) %6)
  store ptr getelementptr inbounds inrange(-16, 48) ({ [8 x ptr] }, ptr @_ZTVN32pxrInternal_v0_24__pxrReserved__16UsdAPISchemaBaseE, i32 0, i32 0, i32 2), ptr %5, align 8
  %7 = getelementptr inbounds nuw %"class.pxrInternal_v0_24__pxrReserved__::UsdAPISchemaBase", ptr %5, i32 0, i32 1
  call void @_ZN32pxrInternal_v0_24__pxrReserved__7TfTokenC2Ev(ptr noundef nonnull align 8 dereferenceable(8) %7) #3
  ret void
}

; Function Attrs: mustprogress uwtable
define linkonce_odr void @_ZN32pxrInternal_v0_24__pxrReserved__14UsdLuxLightAPIC2ERKNS_7UsdPrimE(ptr noundef nonnull align 8 dereferenceable(32) %0, ptr noundef nonnull align 8 dereferenceable(32) %1) unnamed_addr #0 comdat align 2 {
  %3 = alloca ptr, align 8
  %4 = alloca ptr, align 8
  store ptr %0, ptr %3, align 8
  store ptr %1, ptr %4, align 8
  %5 = load ptr, ptr %3, align 8
  %6 = load ptr, ptr %4, align 8
  call void @_ZN32pxrInternal_v0_24__pxrReserved__16UsdAPISchemaBaseC2ERKNS_7UsdPrimE(ptr noundef nonnull align 8 dereferenceable(32) %5, ptr noundef nonnull align 8 dereferenceable(32) %6)
  store ptr getelementptr inbounds inrange(-16, 48) ({ [8 x ptr] }, ptr @_ZTVN32pxrInternal_v0_24__pxrReserved__14UsdLuxLightAPIE, i32 0, i32 0, i32 2), ptr %5, align 8
  ret void
}

; Function Attrs: mustprogress uwtable
define noundef zeroext i1 @_ZNK32pxrInternal_v0_24__pxrReserved__22UsdImagingLightAdapter25_UpdateCollectionsChangedERKNS_7UsdPrimE(ptr noundef nonnull align 8 dereferenceable(32) %0, ptr noundef nonnull align 8 dereferenceable(32) %1) #0 align 2 personality ptr @__gxx_personality_v0 {
  %3 = alloca ptr, align 8
  %4 = alloca ptr, align 8
  %5 = alloca ptr, align 8
  %6 = alloca %"class.pxrInternal_v0_24__pxrReserved__::UsdLuxLightAPI", align 8
  %7 = alloca i8, align 1
  %8 = alloca %"class.pxrInternal_v0_24__pxrReserved__::UsdCollectionAPI", align 8
  %9 = alloca ptr, align 8
  %10 = alloca i32, align 4
  %11 = alloca i8, align 1
  %12 = alloca %"class.pxrInternal_v0_24__pxrReserved__::UsdCollectionAPI", align 8
  store ptr %0, ptr %3, align 8
  store ptr %1, ptr %4, align 8
  %13 = load ptr, ptr %3, align 8
  %14 = call noundef nonnull align 8 dereferenceable(312) ptr @_ZNK32pxrInternal_v0_24__pxrReserved__21UsdImagingPrimAdapter19_GetCollectionCacheEv(ptr noundef nonnull align 8 dereferenceable(32) %13)
  store ptr %14, ptr %5, align 8
  %15 = load ptr, ptr %4, align 8
  call void @_ZN32pxrInternal_v0_24__pxrReserved__14UsdLuxLightAPIC2ERKNS_7UsdPrimE(ptr noundef nonnull align 8 dereferenceable(32) %6, ptr noundef nonnull align 8 dereferenceable(32) %15)
  %16 = load ptr, ptr %5, align 8
  invoke void @_ZNK32pxrInternal_v0_24__pxrReserved__14UsdLuxLightAPI25GetLightLinkCollectionAPIEv(ptr dead_on_unwind writable sret(%"class.pxrInternal_v0_24__pxrReserved__::UsdCollectionAPI") align 8 %8, ptr noundef nonnull align 8 dereferenceable(32) %6)
          to label %17 unwind label %33

17:                                               ; preds = %2
  %18 = invoke noundef zeroext i1 @_ZN32pxrInternal_v0_24__pxrReserved__26UsdImaging_CollectionCache16UpdateCollectionERKNS_16UsdCollectionAPIE(ptr noundef nonnull align 8 dereferenceable(312) %16, ptr noundef nonnull align 8 dereferenceable(32) %8)
          to label %19 unwind label %37

19:                                               ; preds = %17
  call void @_ZN32pxrInternal_v0_24__pxrReserved__16UsdCollectionAPID1Ev(ptr noundef nonnull align 8 dereferenceable(32) %8) #3
  %20 = zext i1 %18 to i8
  store i8 %20, ptr %7, align 1
  %21 = load ptr, ptr %5, align 8
  invoke void @_ZNK32pxrInternal_v0_24__pxrReserved__14UsdLuxLightAPI26GetShadowLinkCollectionAPIEv(ptr dead_on_unwind writable sret(%"class.pxrInternal_v0_24__pxrReserved__::UsdCollectionAPI") align 8 %12, ptr noundef nonnull align 8 dereferenceable(32) %6)
          to label %22 unwind label %33

22:                                               ; preds = %19
  %23 = invoke noundef zeroext i1 @_ZN32pxrInternal_v0_24__pxrReserved__26UsdImaging_CollectionCache16UpdateCollectionERKNS_16UsdCollectionAPIE(ptr noundef nonnull align 8 dereferenceable(312) %21, ptr noundef nonnull align 8 dereferenceable(32) %12)
          to label %24 unwind label %41

24:                                               ; preds = %22
  call void @_ZN32pxrInternal_v0_24__pxrReserved__16UsdCollectionAPID1Ev(ptr noundef nonnull align 8 dereferenceable(32) %12) #3
  %25 = zext i1 %23 to i8
  store i8 %25, ptr %11, align 1
  %26 = load i8, ptr %7, align 1
  %27 = trunc i8 %26 to i1
  br i1 %27, label %31, label %28

28:                                               ; preds = %24
  %29 = load i8, ptr %11, align 1
  %30 = trunc i8 %29 to i1
  br label %31

31:                                               ; preds = %28, %24
  %32 = phi i1 [ true, %24 ], [ %30, %28 ]
  call void @_ZN32pxrInternal_v0_24__pxrReserved__14UsdLuxLightAPID1Ev(ptr noundef nonnull align 8 dereferenceable(32) %6) #3
  ret i1 %32

33:                                               ; preds = %19, %2
  %34 = landingpad { ptr, i32 }
          cleanup
  %35 = extractvalue { ptr, i32 } %34, 0
  store ptr %35, ptr %9, align 8
  %36 = extractvalue { ptr, i32 } %34, 1
  store i32 %36, ptr %10, align 4
  br label %45

37:                                               ; preds = %17
  %38 = landingpad { ptr, i32 }
          cleanup
  %39 = extractvalue { ptr, i32 } %38, 0
  store ptr %39, ptr %9, align 8
  %40 = extractvalue { ptr, i32 } %38, 1
  store i32 %40, ptr %10, align 4
  call void @_ZN32pxrInternal_v0_24__pxrReserved__16UsdCollectionAPID1Ev(ptr noundef nonnull align 8 dereferenceable(32) %8) #3
  br label %45

41:                                               ; preds = %22
  %42 = landingpad { ptr, i32 }
          cleanup
  %43 = extractvalue { ptr, i32 } %42, 0
  store ptr %43, ptr %9, align 8
  %44 = extractvalue { ptr, i32 } %42, 1
  store i32 %44, ptr %10, align 4
  call void @_ZN32pxrInternal_v0_24__pxrReserved__16UsdCollectionAPID1Ev(ptr noundef nonnull align 8 dereferenceable(32) %12) #3
  br label %45

45:                                               ; preds = %41, %37, %33
  call void @_ZN32pxrInternal_v0_24__pxrReserved__14UsdLuxLightAPID1Ev(ptr noundef nonnull align 8 dereferenceable(32) %6) #3
  br label %46

46:                                               ; preds = %45
  %47 = load ptr, ptr %9, align 8
  %48 = load i32, ptr %10, align 4
  %49 = insertvalue { ptr, i32 } poison, ptr %47, 0
  %50 = insertvalue { ptr, i32 } %49, i32 %48, 1
  resume { ptr, i32 } %50
}