; Function Attrs: mustprogress uwtable
define noundef zeroext i1 @_ZNK32pxrInternal_v0_24__pxrReserved__22UsdImagingLightAdapter25_UpdateCollectionsChangedERKNS_7UsdPrimE(ptr noundef nonnull align 8 dereferenceable(32) %0, ptr noundef nonnull align 8 dereferenceable(32) %1) local_unnamed_addr #0 align 2 personality ptr @__gxx_personality_v0 {
  %3 = alloca %"class.pxrInternal_v0_24__pxrReserved__::UsdLuxLightAPI", align 8
  %4 = alloca %"class.pxrInternal_v0_24__pxrReserved__::UsdCollectionAPI", align 8
  %5 = alloca %"class.pxrInternal_v0_24__pxrReserved__::UsdCollectionAPI", align 8
  %6 = tail call noundef nonnull align 8 dereferenceable(312) ptr @_ZNK32pxrInternal_v0_24__pxrReserved__21UsdImagingPrimAdapter19_GetCollectionCacheEv(ptr noundef nonnull align 8 dereferenceable(32) %0)
  call void @_ZN32pxrInternal_v0_24__pxrReserved__13UsdSchemaBaseC2ERKNS_7UsdPrimE(ptr noundef nonnull align 8 dereferenceable(24) %3, ptr noundef nonnull align 8 dereferenceable(32) %1)
  %7 = getelementptr inbounds nuw i8, ptr %3, i64 24
  store ptr null, ptr %7, align 8
  store ptr getelementptr inbounds inrange(-16, 48) (i8, ptr @_ZTVN32pxrInternal_v0_24__pxrReserved__14UsdLuxLightAPIE, i64 16), ptr %3, align 8
  invoke void @_ZNK32pxrInternal_v0_24__pxrReserved__14UsdLuxLightAPI25GetLightLinkCollectionAPIEv(ptr dead_on_unwind nonnull writable sret(%"class.pxrInternal_v0_24__pxrReserved__::UsdCollectionAPI") align 8 %4, ptr noundef nonnull align 8 dereferenceable(32) %3)
          to label %8 unwind label %15

8:                                                ; preds = %2
  %9 = invoke noundef zeroext i1 @_ZN32pxrInternal_v0_24__pxrReserved__26UsdImaging_CollectionCache16UpdateCollectionERKNS_16UsdCollectionAPIE(ptr noundef nonnull align 8 dereferenceable(312) %6, ptr noundef nonnull align 8 dereferenceable(32) %4)
          to label %10 unwind label %17

10:                                               ; preds = %8
  call void @_ZN32pxrInternal_v0_24__pxrReserved__16UsdCollectionAPID1Ev(ptr noundef nonnull align 8 dereferenceable(32) %4) #20
  invoke void @_ZNK32pxrInternal_v0_24__pxrReserved__14UsdLuxLightAPI26GetShadowLinkCollectionAPIEv(ptr dead_on_unwind nonnull writable sret(%"class.pxrInternal_v0_24__pxrReserved__::UsdCollectionAPI") align 8 %5, ptr noundef nonnull align 8 dereferenceable(32) %3)
          to label %11 unwind label %15

11:                                               ; preds = %10
  %12 = invoke noundef zeroext i1 @_ZN32pxrInternal_v0_24__pxrReserved__26UsdImaging_CollectionCache16UpdateCollectionERKNS_16UsdCollectionAPIE(ptr noundef nonnull align 8 dereferenceable(312) %6, ptr noundef nonnull align 8 dereferenceable(32) %5)
          to label %13 unwind label %19

13:                                               ; preds = %11
  call void @_ZN32pxrInternal_v0_24__pxrReserved__16UsdCollectionAPID1Ev(ptr noundef nonnull align 8 dereferenceable(32) %5) #20
  %14 = or i1 %9, %12
  call void @_ZN32pxrInternal_v0_24__pxrReserved__14UsdLuxLightAPID1Ev(ptr noundef nonnull align 8 dereferenceable(32) %3) #20
  ret i1 %14

15:                                               ; preds = %10, %2
  %16 = landingpad { ptr, i32 }
          cleanup
  br label %21

17:                                               ; preds = %8
  %18 = landingpad { ptr, i32 }
          cleanup
  call void @_ZN32pxrInternal_v0_24__pxrReserved__16UsdCollectionAPID1Ev(ptr noundef nonnull align 8 dereferenceable(32) %4) #20
  br label %21

19:                                               ; preds = %11
  %20 = landingpad { ptr, i32 }
          cleanup
  call void @_ZN32pxrInternal_v0_24__pxrReserved__16UsdCollectionAPID1Ev(ptr noundef nonnull align 8 dereferenceable(32) %5) #20
  br label %21

21:                                               ; preds = %19, %17, %15
  %.pn = phi { ptr, i32 } [ %20, %19 ], [ %16, %15 ], [ %18, %17 ]
  call void @_ZN32pxrInternal_v0_24__pxrReserved__14UsdLuxLightAPID1Ev(ptr noundef nonnull align 8 dereferenceable(32) %3) #20
  resume { ptr, i32 } %.pn
}